target datalayout = "e-m:e-p270:32:32-p271:32:32-p272:64:64-i64:64-i128:128-f80:128-n8:16:32:64-S128"
target triple = "x86_64-pc-linux-gnu"

%"class.net::QuicData" = type <{ ptr, ptr, i64, i8, [7 x i8] }>

@_ZTVN3net8QuicDataE = unnamed_addr constant { [4 x ptr] } { [4 x ptr] [ptr null, ptr @_ZTIN3net8QuicDataE, ptr @_ZN3net8QuicDataD1Ev, ptr @_ZN3net8QuicDataD0Ev] }, align 8

; Function Attrs: mustprogress nounwind uwtable
define void @_ZN3net8QuicDataC2EPKcm(ptr noundef nonnull align 8 dereferenceable(25) %0, ptr noundef %1, i64 noundef %2) unnamed_addr #1 align 2 {
  %4 = alloca ptr, align 8
  %5 = alloca ptr, align 8
  %6 = alloca i64, align 8
  store ptr %0, ptr %4, align 8, !tbaa !257
  store ptr %1, ptr %5, align 8, !tbaa !66
  store i64 %2, ptr %6, align 8, !tbaa !71
  %7 = load ptr, ptr %4, align 8
  store ptr getelementptr inbounds inrange(-16, 16) ({ [4 x ptr] }, ptr @_ZTVN3net8QuicDataE, i32 0, i32 0, i32 2), ptr %7, align 8, !tbaa !69
  %8 = getelementptr inbounds nuw %"class.net::QuicData", ptr %7, i32 0, i32 1
  %9 = load ptr, ptr %5, align 8, !tbaa !66
  store ptr %9, ptr %8, align 8, !tbaa !259
  %10 = getelementptr inbounds nuw %"class.net::QuicData", ptr %7, i32 0, i32 2
  %11 = load i64, ptr %6, align 8, !tbaa !71
  store i64 %11, ptr %10, align 8, !tbaa !261
  %12 = getelementptr inbounds nuw %"class.net::QuicData", ptr %7, i32 0, i32 3
  store i8 0, ptr %12, align 8, !tbaa !262
  ret void
}